; Function Attrs: nounwind uwtable
define noundef nonnull ptr @l_Lake_LeanLibConfig_precompileModules___proj___elambda__1___boxed(ptr noundef %0, ptr noundef %1) #1 {
  %3 = ptrtoint ptr %1 to i64
  %4 = and i64 %3, 1
  %.not = icmp eq i64 %4, 0
  br i1 %.not, label %5, label %lean_dec.exit5

5:                                                ; preds = %2
  %6 = load i32, ptr %1, align 4, !tbaa !10
  %7 = icmp sgt i32 %6, 1
  br i1 %7, label %8, label %10, !prof !13

8:                                                ; preds = %5
  %9 = add nsw i32 %6, -1
  store i32 %9, ptr %1, align 4, !tbaa !10
  br label %lean_dec.exit5

10:                                               ; preds = %5
  %.not.i = icmp eq i32 %6, 0
  br i1 %.not.i, label %lean_dec.exit5, label %11

11:                                               ; preds = %10
  tail call void @lean_dec_ref_cold(ptr noundef nonnull %1) #8
  br label %lean_dec.exit5

lean_dec.exit5:                                   ; preds = %11, %10, %8, %2
  %12 = ptrtoint ptr %0 to i64
  %13 = and i64 %12, 1
  %.not8 = icmp eq i64 %13, 0
  br i1 %.not8, label %14, label %lean_dec.exit

14:                                               ; preds = %lean_dec.exit5
  %15 = load i32, ptr %0, align 4, !tbaa !10
  %16 = icmp sgt i32 %15, 1
  br i1 %16, label %17, label %19, !prof !13

17:                                               ; preds = %14
  %18 = add nsw i32 %15, -1
  store i32 %18, ptr %0, align 4, !tbaa !10
  br label %lean_dec.exit

19:                                               ; preds = %14
  %.not.i6 = icmp eq i32 %15, 0
  br i1 %.not.i6, label %lean_dec.exit, label %20

20:                                               ; preds = %19
  tail call void @lean_dec_ref_cold(ptr noundef nonnull %0) #8
  br label %lean_dec.exit

lean_dec.exit:                                    ; preds = %20, %19, %17, %lean_dec.exit5
  ret ptr inttoptr (i64 1 to ptr)
}